; Function Attrs: nounwind uwtable
define ptr @l_Lean_sanitizeSyntax(ptr noundef %0, ptr noundef %1) local_unnamed_addr #0 {
  %3 = getelementptr inbounds nuw i8, ptr %1, i64 8
  %4 = load ptr, ptr %3, align 8, !tbaa !9
  %5 = ptrtoint ptr %4 to i64
  %6 = and i64 %5, 1
  %.not = icmp eq i64 %6, 0
  br i1 %.not, label %7, label %lean_inc.exit

7:                                                ; preds = %2
  %.val.i = load i32, ptr %4, align 4, !tbaa !4
  %8 = icmp sgt i32 %.val.i, 0
  br i1 %8, label %9, label %11, !prof !11

9:                                                ; preds = %7
  %10 = add nuw i32 %.val.i, 1
  store i32 %10, ptr %4, align 4, !tbaa !4
  br label %15

11:                                               ; preds = %7
  %.not.i14 = icmp eq i32 %.val.i, 0
  br i1 %.not.i14, label %15, label %12

12:                                               ; preds = %11
  tail call void @lean_inc_ref_cold(ptr noundef nonnull %4) #3
  br label %15

lean_inc.exit:                                    ; preds = %2
  %13 = load ptr, ptr @l_Lean_getSanitizeNames___closed__1, align 8, !tbaa !9
  %14 = tail call zeroext i8 @l_Lean_Option_get___at_Lean_getSanitizeNames___spec__1(ptr noundef %4, ptr noundef %13)
  br label %lean_dec.exit

15:                                               ; preds = %12, %11, %9
  %16 = load ptr, ptr @l_Lean_getSanitizeNames___closed__1, align 8, !tbaa !9
  %17 = tail call zeroext i8 @l_Lean_Option_get___at_Lean_getSanitizeNames___spec__1(ptr noundef nonnull %4, ptr noundef %16)
  %18 = load i32, ptr %4, align 4, !tbaa !4
  %19 = icmp sgt i32 %18, 1
  br i1 %19, label %20, label %22, !prof !11

20:                                               ; preds = %15
  %21 = add nsw i32 %18, -1
  store i32 %21, ptr %4, align 4, !tbaa !4
  br label %lean_dec.exit

22:                                               ; preds = %15
  %.not.i = icmp eq i32 %18, 0
  br i1 %.not.i, label %lean_dec.exit, label %23

23:                                               ; preds = %22
  tail call void @lean_dec_ref_cold(ptr noundef nonnull %4) #3
  br label %lean_dec.exit

lean_dec.exit:                                    ; preds = %23, %22, %20, %lean_inc.exit
  %24 = phi i8 [ %14, %lean_inc.exit ], [ %17, %20 ], [ %17, %22 ], [ %17, %23 ]
  %25 = icmp eq i8 %24, 0
  br i1 %25, label %26, label %33

26:                                               ; preds = %lean_dec.exit
  tail call void @lean_inc_heartbeat() #3
  %27 = tail call noalias ptr @mi_malloc_small(i64 noundef 24) #3
  %28 = icmp eq ptr %27, null
  br i1 %28, label %29, label %lean_alloc_ctor.exit

29:                                               ; preds = %26
  tail call void @lean_internal_panic_out_of_memory() #4
  unreachable

lean_alloc_ctor.exit:                             ; preds = %26
  %30 = getelementptr inbounds nuw i8, ptr %27, i64 4
  store i32 1, ptr %27, align 4, !tbaa !4
  store i32 131096, ptr %30, align 4
  %31 = getelementptr inbounds nuw i8, ptr %27, i64 8
  store ptr %0, ptr %31, align 8, !tbaa !9
  %32 = getelementptr inbounds nuw i8, ptr %27, i64 16
  store ptr %1, ptr %32, align 8, !tbaa !9
  br label %35

33:                                               ; preds = %lean_dec.exit
  %34 = tail call ptr @l___private_Lean_Hygiene_0__Lean_sanitizeSyntaxAux(ptr noundef %0, ptr noundef nonnull %1)
  br label %35

35:                                               ; preds = %33, %lean_alloc_ctor.exit
  %.0 = phi ptr [ %27, %lean_alloc_ctor.exit ], [ %34, %33 ]
  ret ptr %.0
}